XAS99 CROSS-ASSEMBLER   VERSION 1.5.3
**** **** ****     > boot99105.asm
0001               * Erik Piehl (C) 2016 October
0002               * boot99105.asm
0003               *
0004               * This is a test program intended to test various pieces of
0005               * functionality of the EP994A.
0006               *
0007               * Compile with: xas99.py -b -R -L list.lst boot99105.asm
0008               * Load with:  ../memloader/memloader 0 boot99105_0000.bin
0009               *
0010               
0011                      IDT  'BOOT99'
0012               
0013               ;;WRKSP   EQU   >8300
0014      3F00     WRKSP   EQU   >3f00   ; Test workspace in external RAM
0015      8320     PRINTWS EQU   >8320
0016      8322     PRTR1P	EQU	  >8322		; Input for PRINTR1
0017      8340     DELAYWS EQU		>8340
0018      8360     TESTLOC EQU   >8360
0019      A040     TMPBUF  EQU   >A040
0020      A000     INTWS   EQU   >A000   ; interrupt workspace
0021               
0022      B000     OUTP  EQU   >B000
0023      8800     VDPRD  EQU  >8800
0024      8802     VDPST  EQU  >8802
0025      8C00     VDPWD  EQU  >8C00             * VDP write data
0026      8C02     VDPWA  EQU  >8C02             * VDP set read/write address
0027               
0028               *---------------------------------------------
0029               * Macro: printString <arg>
0030               * (would be xop <arg>,14 for the TMS9995 BB)
0031               *---------------------------------------------
0036               
0037               *---------------------------------------------
0038               * Macro: printNumber <arg>
0039               * (would be xop <arg>,10 for the TMS9995 BB)
0040               *---------------------------------------------
0045               
0046               *---------------------------------------------
0047               * Macro: printCrLf
0048               *---------------------------------------------
0053               
0054               
0055               *---------------------------------------------
0056               * Macro: printChar <arg>
0057               * (would be xop <arg>,12 for the TMS9995 BB)
0058               *---------------------------------------------
0063               
0064               
0065                      AORG  >2000
0066 2000 3F00            DATA WRKSP,BOOT
     2002 2046 
0067 2004 A000            DATA INTWS,VDPINT
     2006 2020 
0068 2008 A000            DATA INTWS,VDPINT
     200A 2020 
0069               
0070 200C 8320     PRINTS	DATA	PRINTWS,GOPRINT
     200E 252E 
0071 2010 8320     PRINTR1	DATA	PRINTWS,GOPR1
     2012 251C 
0072 2014 8320     PRINTCH DATA	PRINTWS,GOPRCHAR
     2016 2560 
0073 2018 8320     CLS     DATA  PRINTWS,GOCLS
     201A 2570 
0074               
0075 201C 8340     NICEDELAY DATA	DELAYWS,GODELAY
     201E 259E 
0076               
0077               ; Our interrupt routine
0078               VDPINT
0079 2020 0300  24         LIMI    0
     2022 0000 
0080 2024 0580  14         INC     R0          ; R0 counts interrupts
0081 2026 04CC  14         CLR     R12
0082 2028 3402  64         STCR    R2,0        ; See the TMS9901 register, low 16 bits
0083 202A 1F02  20         TB      2
0084 202C 1603  14         JNE     !ok
0085 202E 0203  20         LI      R3,>FFFF    ; error
     2030 FFFF 
0086 2032 1002  14         JMP     !
0087               !ok
0088 2034 0203  20         LI      R3,>1234    ; OK
     2036 1234 
0089               !
0090 2038 D060  34         MOVB    @VDPST,R1   ; clear the VDP interrupt request
     203A 8802 
0091 203C 0205  20         LI      R5,>100
     203E 0100 
0092 2040 B805  38         AB      R5,@>8379   ; Increment frame counter in scratchpad
     2042 8379 
0093 2044 0380  18         RTWP
0094               
0095               
0096               BOOT
0097 2046 0300  24       LIMI  0
     2048 0000 
0098               ; BOOTLP
0099               ;      JMP   BOOTLP
0100               ;      NOP
0101               ;      NOP
0102               ;      JMP   BOOTLP
0103               
0104 204A 02E0  18       LWPI  WRKSP
     204C 3F00 
0105 204E 04E0  34       CLR   @INTWS      ; Zero INTWS.R0, the interrupt counter.
     2050 A000 
0106               
0107               ; Test CB instruction with flag setting
0108 2052 0205  20   LI  R5,>7A9B
     2054 7A9B 
0109 2056 9805  38   CB  R5,@TESTK+1
     2058 25ED 
0110 205A 1201  14   JLE GOGOGO
0111 205C 1000  14   NOP
0112               GOGOGO
0113               
0114 205E D803  38       MOVB  R3,@VDPWD   ; Dummy write to data, to reset latch
     2060 8C00 
0115               ; Write initial values to VDP registers
0116 2062 0201  20       LI    R1,VDPSEQ
     2064 25E0 
0117 2066 0202  20       LI    R2,>8000    ; command, write register 0
     2068 8000 
0118               VLP
0119 206A D831  48       MOVB  *R1+,@VDPWA ; write data
     206C 8C02 
0120 206E D802  38       MOVB  R2,@VDPWA   ; write register number
     2070 8C02 
0121 2072 0222  22       AI    R2,>0100    ; next register
     2074 0100 
0122 2076 0282  22       CI    R2,>8800
     2078 8800 
0123 207A 16F7  14       JNE   VLP
0124               
0125               ;;;      JMP SKIP_CLEAR
0126               
0127               ; Clear VDP RAM
0128 207C 04C0  14       CLR   R0
0129 207E 0201  20       LI    R1,>4000
     2080 4000 
0130 2082 06C1  14       SWPB  R1
0131 2084 D801  38       MOVB  R1,@VDPWA   ; Address to zero
     2086 8C02 
0132 2088 06C1  14       SWPB  R1
0133 208A D801  38       MOVB  R1,@VDPWA
     208C 8C02 
0134               !
0135 208E D800  38       MOVB  R0,@VDPWD
     2090 8C00 
0136 2092 0601  14       DEC   R1
0137 2094 16FC  14       JNE   -!
0138               SKIP_CLEAR:
0139 2096 06A0  32       BL    @COPYFONTS
     2098 24B6 
0140 209A 04CC  14       CLR   R12         ; CRU pointer
0141 209C 1E00  20       SBZ   0           ; Make sure we are not in timer mode
0142 209E 1D02  20       SBO   2           ; Enable VDP interrupts
0143               ;;;      LIMI  0           ; Don't enable interrupts (BUGBUG)
0144               ;;;      LIMI  2           ; Enable interrupts
0145               ;;;      B   @GODEFENDER
0146               
0147               
0148               ; Initialize color table with >17 times 32
0149 20A0 0200  20       LI    R0,>0380    ; address of color table
     20A2 0380 
0150 20A4 06A0  32       BL		@SETUPVDPA
     20A6 244E 
0151 20A8 0201  20       LI    R1,32
     20AA 0020 
0152 20AC 0202  20       LI    R2,>1700
     20AE 1700 
0153               !
0154 20B0 D802  38       MOVB  R2,@VDPWD
     20B2 8C00 
0155 20B4 0601  14       DEC   R1
0156 20B6 16FC  14       JNE   -!
0157               
0158 20B8 04E0  34 	  CLR   @PRINTWS
     20BA 8320 
0001 20BC 0420  54 			BLWP	@PRINTS
     20BE 200C 
0002 20C0 39EE     			DATA	HELLO
0001 20C2 0420  54 	    BLWP	@PRINTS
     20C4 200C 
0002 20C6 25E8       	  DATA	TXTCRLF
0161               
0162 20C8 1028  14       JMP		GROM1
0163               
0164 20CA 04E0  34       CLR   @PRINTWS    ; Initial display position
     20CC 8320 
0165 20CE 04C1  14       CLR   R1
0166 20D0 0202  20       LI    R2,>1234
     20D2 1234 
0167 20D4 0203  20       LI    R3,>FFFF
     20D6 FFFF 
0168 20D8 0204  20       LI    R4,>2000
     20DA 2000 
0169 20DC 0205  20       LI    R5,20
     20DE 0014 
0170 20E0 0206  20       LI    R6,>DEF0
     20E2 DEF0 
0171 20E4 0207  20       LI    R7,'3'*256
     20E6 3300 
0172               LINES1
0001 20E8 C801  38 			MOV		R1,@PRTR1P		; Store HEX value to print
     20EA 8322 
0002 20EC 0420  54 			BLWP	@PRINTR1			; Go print R1
     20EE 2010 
0001 20F0 D804  38 			MOVB	R4,@PRTR1P
     20F2 8322 
0002 20F4 0420  54 			BLWP	@PRINTCH
     20F6 2014 
0175                     ; LI    R6,24
0176 20F8 C181  18       MOV     R1,R6
0177 20FA 0586  14       INC     R6
0178               !
0001 20FC D807  38 			MOVB	R7,@PRTR1P
     20FE 8322 
0002 2100 0420  54 			BLWP	@PRINTCH
     2102 2014 
0180 2104 0606  14       DEC   R6
0181 2106 16FA  14       JNE   -!
0001 2108 0420  54 	    BLWP	@PRINTS
     210A 200C 
0002 210C 25E8       	  DATA	TXTCRLF
0183 210E 0581  14       INC    R1
0184 2110 0241  22       ANDI   R1,>1F
     2112 001F 
0185 2114 0281  22       CI     R1,24
     2116 0018 
0186 2118 16E7  14       JNE    LINES1
0187               
0188               
0189               GROM1
0190               ; Test GROM address counter read and write
0191 211A 0200  20       LI    R0,>40
     211C 0040 
0192 211E C800  38       MOV   R0,@PRINTWS
     2120 8320 
0193 2122 0200  20 			LI		R0,>1234						; write GROM address
     2124 1234 
0194 2126 0209  20       LI    R9,3
     2128 0003 
0195               !gromloop
0001 212A 0420  54 			BLWP	@PRINTS
     212C 200C 
0002 212E 39D8     			DATA	GROMTESTS
0197 2130 D800  38 			MOVB	R0,@>9C02
     2132 9C02 
0198 2134 06C0  14 			SWPB	R0
0199 2136 D800  38 			MOVB	R0,@>9C02
     2138 9C02 
0200 213A 06C0  14       SWPB  R0
0201               ; read two bytes GROM
0202 213C 04C1  14       CLR   R1
0203 213E D060  34       MOVB  @>9800,R1
     2140 9800 
0204 2142 D0A0  34       MOVB  @>9800,R2
     2144 9800 
0205 2146 0982  56       SRL   R2,8
0206 2148 E042  18       SOC   R2,R1
0001 214A C801  38 			MOV		R1,@PRTR1P		; Store HEX value to print
     214C 8322 
0002 214E 0420  54 			BLWP	@PRINTR1			; Go print R1
     2150 2010 
0208               ; and read two more bytes GROM
0209 2152 04C1  14       CLR   R1
0210 2154 D060  34       MOVB  @>9800,R1
     2156 9800 
0211 2158 D0A0  34       MOVB  @>9800,R2
     215A 9800 
0212 215C 0982  56       SRL   R2,8
0213 215E E042  18       SOC   R2,R1
0001 2160 C801  38 			MOV		R1,@PRTR1P		; Store HEX value to print
     2162 8322 
0002 2164 0420  54 			BLWP	@PRINTR1			; Go print R1
     2166 2010 
0215               ; Now read GROM address and display it
0216 2168 04C1  14       CLR   R1
0217 216A D060  34       MOVB  @>9802,R1
     216C 9802 
0218 216E D0A0  34       MOVB  @>9802,R2
     2170 9802 
0219 2172 0982  56       SRL   R2,8
0220 2174 E042  18       SOC   R2,R1
0001 2176 C801  38 			MOV		R1,@PRTR1P		; Store HEX value to print
     2178 8322 
0002 217A 0420  54 			BLWP	@PRINTR1			; Go print R1
     217C 2010 
0222 217E 0220  22       AI    R0,>2000    ; next GROM
     2180 2000 
0223 2182 0609  14       DEC   R9
0224 2184 16D2  14       JNE   -!gromloop
0225               
0226 2186 1023  14         JMP SKIP_99110
0227               ;-----------------------------------------------
0228               ; Attempt to run a TMS99110 instruction
0229 2188 0201  20       LI    R1,>180     ; Halfway through the screen
     218A 0180 
0230 218C C801  38       MOV   R1,@PRINTWS
     218E 8320 
0001 2190 0420  54 			BLWP	@PRINTS
     2192 200C 
0002 2194 3A10     			DATA	TEST_TMS99110
0001 2196 0420  54 	    BLWP	@PRINTS
     2198 200C 
0002 219A 25E8       	  DATA	TXTCRLF
0233 219C 0205  20       LI   R5,>1234    Arbitrary integer.
     219E 1234 
0234               *       CIR  R5          Convert integer in R5 to real and store in FPAC (R0, R1).
0235               *       Opcode in binary: 0000 1100 1000 0101
0236 21A0 0C85          DATA >0C85       Opcode for CIR instruction.
0001 21A2 C800  38 			MOV		R0,@PRTR1P		; Store HEX value to print
     21A4 8322 
0002 21A6 0420  54 			BLWP	@PRINTR1			; Go print R1
     21A8 2010 
0001 21AA C801  38 			MOV		R1,@PRTR1P		; Store HEX value to print
     21AC 8322 
0002 21AE 0420  54 			BLWP	@PRINTR1			; Go print R1
     21B0 2010 
0001 21B2 0420  54 	    BLWP	@PRINTS
     21B4 200C 
0002 21B6 25E8       	  DATA	TXTCRLF
0240               * Next let's make LDS "load distant source operation"
0241 21B8 02C0  12       STST  R0    ; read flag register
0001 21BA C800  38 			MOV		R0,@PRTR1P		; Store HEX value to print
     21BC 8322 
0002 21BE 0420  54 			BLWP	@PRINTR1			; Go print R1
     21C0 2010 
0001 21C2 0420  54 			BLWP	@PRINTS
     21C4 200C 
0002 21C6 39FE     			DATA	FLAGS_STRING
0001 21C8 0420  54 	    BLWP	@PRINTS
     21CA 200C 
0002 21CC 25E8       	  DATA	TXTCRLF
0245               *     LDS
0246               ;      DATA >0780  ; LDS opcode
0247               ;      MOV  @>6000,R0    ; Distant load
0248               ;      MOV  @>6000,R1    ; close load
0249               ;      .printNumber R0
0250               ;      .printNumber R1
0251               ;      .printCrLf
0252               ; Test macrostore access with MID 0 (opcode 0)
0253               ;			DATA >0000
0254               ;			.printString GOTBACK
0255               ;      .printCrLf
0256               ;-----------------------------------------------
0257               SKIP_99110
0258               
0259               ; Try to read keyboard button '1', but first enable VDP interrupts
0260 21CE 04CC  14       CLR   R12         ; CRU pointer
0261 21D0 1E00  20       SBZ   0           ; Make sure we are not in timer mode
0262 21D2 1D02  20       SBO   2           ; Enable VDP interrupts
0263 21D4 0300  24       LIMI  2           ; Enable interrupts
     21D6 0002 
0264               
0265 21D8 0203  20       LI    R3,25000
     21DA 61A8 
0266 21DC 04C0  14 !k    CLR   R0
0267 21DE C800  38       MOV   R0,@PRINTWS
     21E0 8320 
0268               !
0269 21E2 020C  20       LI    R12,>24
     21E4 0024 
0270 21E6 30C0  56       LDCR  R0,3
0271 21E8 020C  20       LI    R12,6        ; Address to read rows
     21EA 0006 
0272 21EC 3601  64       STCR  R1,8
0001 21EE C801  38 			MOV		R1,@PRTR1P		; Store HEX value to print
     21F0 8322 
0002 21F2 0420  54 			BLWP	@PRINTR1			; Go print R1
     21F4 2010 
0001 21F6 0420  54 	    BLWP	@PRINTS
     21F8 200C 
0002 21FA 25E8       	  DATA	TXTCRLF
0275 21FC 0220  22       AI    R0,>100
     21FE 0100 
0276 2200 0280  22       CI    R0,>600
     2202 0600 
0277 2204 16EE  14       JNE   -!
0278 2206 C060  34       MOV   @INTWS,R1   ; Interrupt counter
     2208 A000 
0001 220A C801  38 			MOV		R1,@PRTR1P		; Store HEX value to print
     220C 8322 
0002 220E 0420  54 			BLWP	@PRINTR1			; Go print R1
     2210 2010 
0001 2212 0420  54 	    BLWP	@PRINTS
     2214 200C 
0002 2216 25E8       	  DATA	TXTCRLF
0001 2218 0420  54 			BLWP	@PRINTS
     221A 200C 
0002 221C 39CB     			DATA	CRU0STR
0282 221E C060  34       MOV   @INTWS+4,R1 ; read reg 2 from interrupt context (CRU bits)
     2220 A004 
0001 2222 C801  38 			MOV		R1,@PRTR1P		; Store HEX value to print
     2224 8322 
0002 2226 0420  54 			BLWP	@PRINTR1			; Go print R1
     2228 2010 
0001 222A 0420  54 	    BLWP	@PRINTS
     222C 200C 
0002 222E 25E8       	  DATA	TXTCRLF
0285 2230 C060  34       MOV   @INTWS+6,R1 ; Also show reg 3
     2232 A006 
0001 2234 C801  38 			MOV		R1,@PRTR1P		; Store HEX value to print
     2236 8322 
0002 2238 0420  54 			BLWP	@PRINTR1			; Go print R1
     223A 2010 
0001 223C 0420  54 	    BLWP	@PRINTS
     223E 200C 
0002 2240 25E8       	  DATA	TXTCRLF
0288 2242 04CC  14       CLR   R12
0289 2244 3401  64       STCR  R1,0       ; Read 16 bits (count of 0 means 16)
0001 2246 C801  38 			MOV		R1,@PRTR1P		; Store HEX value to print
     2248 8322 
0002 224A 0420  54 			BLWP	@PRINTR1			; Go print R1
     224C 2010 
0001 224E 0420  54 	    BLWP	@PRINTS
     2250 200C 
0002 2252 25E8       	  DATA	TXTCRLF
0292 2254 0205  20       LI R5,100
     2256 0064 
0293 2258 0206  20       LI R6,7
     225A 0007 
0294 225C 3946  56       MPY R6,R5
0001 225E C805  38 			MOV		R5,@PRTR1P		; Store HEX value to print
     2260 8322 
0002 2262 0420  54 			BLWP	@PRINTR1			; Go print R1
     2264 2010 
0001 2266 C806  38 			MOV		R6,@PRTR1P		; Store HEX value to print
     2268 8322 
0002 226A 0420  54 			BLWP	@PRINTR1			; Go print R1
     226C 2010 
0001 226E 0420  54 	    BLWP	@PRINTS
     2270 200C 
0002 2272 25E8       	  DATA	TXTCRLF
0298               ; EP 2017-08-01 What the heck?
0299               ; TI ROM seems to use also ODD addressed INCT and DECT instructions
0300               ; For example: 0848: DECT @>8373
0301               ; I wonder what that does with a real CPU and with the VHDL CPU...
0302               ; We need to check.
0303 2274 0205  20 		LI R5,>0000
     2276 0000 
0304 2278 C805  38 		MOV R5,@TESTLOC
     227A 8360 
0305 227C C060  34 		MOV @TESTLOC,R1
     227E 8360 
0001 2280 C801  38 			MOV		R1,@PRTR1P		; Store HEX value to print
     2282 8322 
0002 2284 0420  54 			BLWP	@PRINTR1			; Go print R1
     2286 2010 
0307 2288 0660  34 		DECT @TESTLOC+1
     228A 8361 
0308 228C C060  34 		MOV @TESTLOC,R1
     228E 8360 
0001 2290 C801  38 			MOV		R1,@PRTR1P		; Store HEX value to print
     2292 8322 
0002 2294 0420  54 			BLWP	@PRINTR1			; Go print R1
     2296 2010 
0310 2298 05E0  34 		INCT @TESTLOC+1
     229A 8361 
0311 229C C060  34 		MOV @TESTLOC,R1
     229E 8360 
0001 22A0 C801  38 			MOV		R1,@PRTR1P		; Store HEX value to print
     22A2 8322 
0002 22A4 0420  54 			BLWP	@PRINTR1			; Go print R1
     22A6 2010 
0001 22A8 0420  54 	    BLWP	@PRINTS
     22AA 200C 
0002 22AC 25E8       	  DATA	TXTCRLF
0314               
0315               
0316 22AE 0603  14       DEC   R3
0317 22B0 1695  14       JNE   -!k
0318               
0319               
0320               GODEFENDER
0321               ; Check if we have defender loaded. If we have let's go!
0322 22B2 C060  34       MOV   @>6000,R1
     22B4 6000 
0323 22B6 0281  22       CI     R1,>AA01
     22B8 AA01 
0324 22BA 1607  14       JNE   !
0325 22BC C060  34       MOV   @>600E,R1
     22BE 600E 
0326 22C0 0281  22       CI    R1,>6072
     22C2 6072 
0327 22C4 1602  14       JNE   !
0328 22C6 0460  28       B     @>6072
     22C8 6072 
0329               !
0330               
0331               ;;			BLWP	@NICEDELAY
0332               ; Do test of GROM memory. Calculate GROM checksums
0333               GROMCHECK
0334               ;;			BLWP	@CLS
0335               ;;			CLR		R0
0336               ;;			MOV		R0,@PRINTWS
0001 22CA 0420  54 			BLWP	@PRINTS
     22CC 200C 
0002 22CE 39B5     			DATA	GTT
0338               
0339               ; Start of checksum loop
0340 22D0 0204  20 			LI		R4,3					; Iteration counter
     22D2 0003 
0341               !gr3
0342 22D4 04C0  14 			CLR		R0
0343               !gr2
0344 22D6 D800  38 			MOVB	R0,@>9C02				; Setup GROM address to zero
     22D8 9C02 
0345 22DA 06C0  14 			SWPB	R0
0346 22DC D800  38 			MOVB	R0,@>9C02
     22DE 9C02 
0347 22E0 06C0  14       SWPB  R0
0001 22E2 C800  38 			MOV		R0,@PRTR1P		; Store HEX value to print
     22E4 8322 
0002 22E6 0420  54 			BLWP	@PRINTR1			; Go print R1
     22E8 2010 
0349               
0350 22EA 04C1  14       CLR		R1						; init checksum
0351 22EC 0202  20       LI		R2,>1800
     22EE 1800 
0352               !grr
0353 22F0 04C3  14       CLR		R3
0354 22F2 D0E0  34       MOVB	@>9800,R3			; get byte
     22F4 9800 
0355 22F6 0B11  56       SRC		R1,1
0356 22F8 A043  18 			A			R3,R1
0357 22FA 0602  14 			DEC		R2
0358 22FC 16F9  14 			JNE		-!grr
0001 22FE C801  38 			MOV		R1,@PRTR1P		; Store HEX value to print
     2300 8322 
0002 2302 0420  54 			BLWP	@PRINTR1			; Go print R1
     2304 2010 
0360               			; Get address and print it
0361 2306 04C1  14       CLR   R1
0362 2308 D060  34       MOVB  @>9802,R1
     230A 9802 
0363 230C D0A0  34       MOVB  @>9802,R2
     230E 9802 
0364 2310 0982  56       SRL   R2,8
0365 2312 E042  18       SOC   R2,R1
0001 2314 C801  38 			MOV		R1,@PRTR1P		; Store HEX value to print
     2316 8322 
0002 2318 0420  54 			BLWP	@PRINTR1			; Go print R1
     231A 2010 
0001 231C 0420  54 	    BLWP	@PRINTS
     231E 200C 
0002 2320 25E8       	  DATA	TXTCRLF
0368               
0369 2322 0220  22 			AI		R0,>2000
     2324 2000 
0370 2326 0280  22 			CI		R0,>6000
     2328 6000 
0371 232A 16D5  14 			JNE		-!gr2
0372               
0373 232C 0604  14 			DEC		R4
0374 232E 16D2  14 			JNE		-!gr3				; next iteration
0375               
0376 2330 0420  54 			BLWP	@NICEDELAY
     2332 201C 
0377               
0378               
0379 2334 102C  14       JMP   MAINSTART
0380               
0381               NOCLEAR
0382               ; Write fonts
0383 2336 0202  20       LI    R2,CHARS
     2338 25C0 
0384 233A 0201  20       LI    R1,ENDCHARS-CHARS ; count
     233C 0020 
0385 233E 0203  20       LI    R3,>4300    ; address 300
     2340 4300 
0386 2342 06C3  14       SWPB  R3
0387 2344 D803  38       MOVB  R3,@VDPWA   ; low byte of address
     2346 8C02 
0388 2348 06C3  14       SWPB  R3
0389 234A D803  38       MOVB  R3,@VDPWA   ; high byte of address
     234C 8C02 
0390               
0391 234E D832  48 !     MOVB  *R2+,@VDPWD
     2350 8C00 
0392 2352 0601  14       DEC   R1
0393 2354 16FC  14       JNE   -!
0394               
0395               TESTCHARS
0396               ; write a few characters
0397 2356 0203  20       LI    R3,>4000    ; address 0
     2358 4000 
0398 235A 06C3  14       SWPB  R3
0399 235C D803  38       MOVB  R3,@VDPWA   ; low byte of address
     235E 8C02 
0400 2360 06C3  14       SWPB  R3
0401 2362 D803  38       MOVB  R3,@VDPWA   ; high byte of address
     2364 8C02 
0402               
0403 2366 0205  20       LI    R5,>80
     2368 0080 
0404               LPLP
0405 236A 0200  20       LI    R0,>2021    ; >6061
     236C 2021 
0406 236E D800  38       MOVB  R0,@VDPWD
     2370 8C00 
0407 2372 06C0  14       SWPB  R0
0408 2374 D800  38       MOVB  R0,@VDPWD
     2376 8C00 
0409 2378 06C0  14       SWPB  R0
0410 237A 0200  20       LI    R0,>3031     ;>6263
     237C 3031 
0411 237E D800  38       MOVB  R0,@VDPWD
     2380 8C00 
0412 2382 06C0  14       SWPB  R0
0413 2384 D800  38       MOVB  R0,@VDPWD
     2386 8C00 
0414 2388 06C0  14       SWPB  R0
0415 238A 0605  14       DEC   R5
0416 238C 16EE  14       JNE   LPLP
0417               
0418               
0419               MAINSTART
0420 238E 0201  20       LI    R1,OUTP
     2390 B000 
0421 2392 0200  20       LI    R0,>100
     2394 0100 
0422 2396 0203  20       LI    R3,20
     2398 0014 
0423               
0424               MAINLOOP
0425 239A D440  30       MOVB  R0,*R1
0426 239C 0A10  56       SLA   R0,1
0427 239E 1602  14       JNE   !
0428 23A0 0200  20       LI    R0,>100
     23A2 0100 
0429 23A4 04C2  14 !     CLR   R2
0430               !delay
0431 23A6 0602  14       DEC   R2
0432 23A8 16FE  14       JNE   -!delay
0433 23AA 0603  14       DEC   R3
0434 23AC 16F6  14       JNE   MAINLOOP
0435               ; Copy the dump to VDP memory
0436 23AE 0200  20       LI    R0,0
     23B0 0000 
0437 23B2 06A0  32       BL    @SETUPVDPA
     23B4 244E 
0438 23B6 0201  20       LI    R1,VDPDUMP
     23B8 2E86 
0439 23BA 0202  20       LI    R2,DUMPEND-VDPDUMP
     23BC 0B10 
0440               VCOPYLP
0441 23BE D831  48       MOVB  *R1+,@VDPWD
     23C0 8C00 
0442 23C2 0602  14       DEC   R2
0443               ;      MOVB  *R1+,@VDPWD
0444               ;      MOVB  *R1+,@VDPWD
0445               ;      DECT  R2
0446 23C4 16FC  14       JNE   VCOPYLP
0447               
0448               ; Now delay loop
0449 23C6 0201  20       LI    R1,1
     23C8 0001 
0450 23CA 0602  14 !     DEC   R2
0451 23CC 16FE  14       JNE   -!
0452 23CE 0601  14       DEC   R1
0453 23D0 16FC  14       JNE   -!
0454               ; Make a small animation
0455 23D2 0204  20       LI    R4,VDPDUMP+768-32 ; -32 for message
     23D4 3166 
0456 23D6 0205  20       LI    R5,0            ; Scroll offset
     23D8 0000 
0457 23DA 0206  20       LI    R6,0
     23DC 0000 
0458 23DE 0208  20       LI    R8,32
     23E0 0020 
0459 23E2 C081  18       MOV   R1,R2
0460               
0461 23E4 0209  20       LI    R9,10000         ; our delay
     23E6 2710 
0462               
0463 23E8 0300  24       LIMI 	0								; disable interrupts on the TI-99/4A actual hardware
     23EA 0000 
0464                     											; otherwise interrupts mess up the thing
0465               !again
0466 23EC 0201  20       LI    R1,VDPDUMP
     23EE 2E86 
0467 23F0 04C0  14       CLR   R0
0468 23F2 06A0  32       BL    @SETUPVDPA
     23F4 244E 
0469               ; Animate 1 row
0470               !row
0471 23F6 C1C6  18       MOV   R6,R7
0472 23F8 A1C5  18       A     R5,R7
0473 23FA 0247  22       ANDI  R7,>1F
     23FC 001F 
0474 23FE A1C1  18       A     R1,R7
0475 2400 D817  46       MOVB  *R7,@VDPWD
     2402 8C00 
0476 2404 0586  14       INC   R6          ; R6 counts our columns
0477 2406 8206  18       C     R6,R8
0478 2408 16F6  14       JNE   -!row
0479 240A 04C6  14       CLR   R6
0480 240C 0221  22       AI    R1,32
     240E 0020 
0481 2410 8101  18       C     R1,R4
0482 2412 16F1  14       JNE   -!row
0483               ; Increment our offset
0484 2414 0585  14       INC   R5
0485 2416 0245  22       ANDI  R5,31
     2418 001F 
0486               ; Make our small delay
0487 241A 0289  22       CI    R9,0
     241C 0000 
0488 241E 13E6  14       JEQ   -!again   ; if delay is zero, no more printing
0489               
0490 2420 C1C9  18       MOV   R9,R7
0491 2422 0607  14 !del  DEC   R7
0492 2424 16FE  14       JNE   -!del
0493               
0494               ; decrement delay
0495 2426 0229  22       AI    R9,-10
     2428 FFF6 
0496               ; Display a message from our sponsor
0497 242A 0200  20       LI    R0,23*32
     242C 02E0 
0498 242E C800  38       MOV   R0,@PRINTWS
     2430 8320 
0001 2432 0420  54 			BLWP	@PRINTS
     2434 200C 
0002 2436 3996     			DATA	TMS99105
0001 2438 C809  38 			MOV		R9,@PRTR1P		; Store HEX value to print
     243A 8322 
0002 243C 0420  54 			BLWP	@PRINTR1			; Go print R1
     243E 2010 
0001 2440 0420  54 			BLWP	@PRINTS
     2442 200C 
0002 2444 39B2     			DATA	SPACES
0502               ; Proceed to second row directly
0503 2446 0221  22       AI    R1,32
     2448 0020 
0504               
0505               
0506 244A 10D0  14       JMP   -!again
0507               
0508               
0509               
0510               
0511 244C 10A0  14       JMP   MAINSTART
0512               
0513               *---------------------------------------------
0514               * Set VDP address from R0
0515               *---------------------------------------------
0516               SETUPVDPA
0517 244E 0240  22       ANDI  R0,>3FFF
     2450 3FFF 
0518 2452 06C0  14       SWPB  R0
0519 2454 D800  38       MOVB  R0,@VDPWA         * Send low byte of VDP RAM write address
     2456 8C02 
0520 2458 06C0  14       SWPB  R0
0521 245A 0260  22       ORI   R0,>4000          * Set read/write bits 14 and 15 to write (01)
     245C 4000 
0522 245E D800  38       MOVB  R0,@VDPWA         * Send high byte of VDP RAM write address
     2460 8C02 
0523 2462 045B  20       RT
0524               
0525               *---------------------------------------------
0526               * Scroll up - test VDP reads
0527               * For reads top 2 bits are zero
0528               *---------------------------------------------
0529               SCROLLUP
0530 2464 C28B  18       MOV   R11,R10           * Save return address
0531 2466 0206  20       LI    R6,>20            * VRAM read address
     2468 0020 
0532 246A 04C0  14       CLR   R0                * VRAM write address
0533 246C 0207  20       LI    R7,23             * 23 lines
     246E 0017 
0534               
0535               !scrollloop
0536 2470 06C6  14       SWPB  R6
0537 2472 D806  38       MOVB  R6,@VDPWA         * Send low byte of VDP RAM read address
     2474 8C02 
0538 2476 06C6  14       SWPB  R6
0539 2478 D806  38       MOVB  R6,@VDPWA
     247A 8C02 
0540 247C 0202  20       LI    R2,>20
     247E 0020 
0541 2480 0205  20       LI    R5,TMPBUF
     2482 A040 
0542 2484 0201  20       LI    R1,VDPRD          * VDP read address
     2486 8800 
0543               !rdloop
0544 2488 DD51  40       MOVB  *R1,*R5+          * read byte from VRAM
0545 248A DD51  40       MOVB  *R1,*R5+          * read byte from VRAM
0546 248C 0642  14       DECT  R2
0547 248E 16FC  14       JNE   -!rdloop
0548               ; Next write the same stuff to the previous line
0549 2490 06A0  32       BL    @SETUPVDPA
     2492 244E 
0550 2494 0202  20       LI    R2,>20
     2496 0020 
0551 2498 0205  20       LI    R5,TMPBUF
     249A A040 
0552 249C 0201  20       LI    R1,VDPWD          * VDP read address
     249E 8C00 
0553               !wrloop
0554 24A0 D475  40       MOVB  *R5+,*R1
0555 24A2 D475  40       MOVB  *R5+,*R1
0556 24A4 0642  14       DECT  R2
0557 24A6 16FC  14       jne   -!wrloop
0558 24A8 0220  22       AI    R0,>20
     24AA 0020 
0559 24AC 0226  22       AI    R6,>20
     24AE 0020 
0560 24B0 0607  14       DEC   R7
0561 24B2 16DE  14       JNE   -!scrollloop
0562 24B4 045A  20       B     *R10            * Return
0563               
0564               * copy fonts from GROMs to pattern table
0565               COPYFONTS
0566 24B6 C28B  18       MOV   R11,R10     ; Save return address
0567 24B8 0200  20       LI    R0,>6B4         * setup GROM source address of font table
     24BA 06B4 
0568 24BC 0207  20       LI    R7,GROM0
     24BE 25EE 
0569 24C0 A1C0  18       A     R0,R7
0570               ;      MOVB    R0,@>9C02
0571               ;      SWPB    R0
0572               ;      MOVB    R0,@>9C02
0573 24C2 0200  20       LI      R0,>800+(32*8)          * destination address in VRAM
     24C4 0900 
0574 24C6 06A0  32       BL      @SETUPVDPA
     24C8 244E 
0575 24CA 0200  20       LI      R0,62                                                   * 62 characters to copy
     24CC 003E 
0576 24CE 04C2  14       CLR     R2
0577               !ch2
0578 24D0 0201  20       LI      R1,7                                                    * 7 bytes per char
     24D2 0007 
0579               !char
0580 24D4 D837  48       MOVB    *R7+,@VDPWD        * move byte from GROM to VDP
     24D6 8C00 
0581 24D8 0601  14       DEC     R1
0582 24DA 16FC  14       JNE     -!char
0583 24DC D802  38       MOVB    R2,@VDPWD                                 * 8th byte just zero
     24DE 8C00 
0584 24E0 0600  14       DEC     R0
0585 24E2 16F6  14       JNE     -!ch2
0586 24E4 045A  20       B     *R10    ; return
0587               
0588               
0589               HEXWORD	; EP display R1 in hex in the current VDP location
0590 24E6 0203  20 			LI	R3,4
     24E8 0004 
0591               HEXLOOP
0592 24EA C28B  18 		  MOV R11,R10
0593 24EC C081  18 			MOV	R1,R2
0594 24EE 06A0  32 !			BL	@HEXNIBBLE
     24F0 2502 
0595 24F2 0A42  56 			SLA	R2,4
0596 24F4 C042  18 			MOV	R2,R1
0597 24F6 0603  14 			DEC	R3
0598 24F8 16FA  14 			JNE	-!
0599 24FA 045A  20 			B 	*R10
0600               
0601               HEXBYTE	; Display most significant byte of R1 in the current VDP location
0602 24FC 0203  20 			LI 	R3,2
     24FE 0002 
0603 2500 10F4  14 			JMP	HEXLOOP
0604               
0605               
0606               HEXNIBBLE	; EP display top 4 bits of R1 in current VDP RAM location
0607 2502 0941  56 			SRL 	R1,4
0608 2504 0241  22 			ANDI 	R1,>0F00
     2506 0F00 
0609 2508 0221  22 			AI		R1,>3000	; Convert to ASCII
     250A 3000 
0610 250C 0281  22 			CI		R1,>3A00
     250E 3A00 
0611 2510 1A02  14 			JL		!
0612 2512 0221  22 			AI		R1,>0700
     2514 0700 
0613 2516 D801  38 !     MOVB  R1,@VDPWD
     2518 8C00 
0614 251A 045B  20 			RT
0615               
0616               *--------------------------------------------
0617               * GOPR1
0618               * Print contents of R1 in the PRINTWS
0619               * workspace.
0620               *--------------------------------------------
0621               GOPR1
0622 251C 0300  24 			LIMI	0
     251E 0000 
0623 2520 06A0  32 			BL		@SETUPVDPA		; Setup dest address
     2522 244E 
0624 2524 06A0  32 			BL		@HEXWORD			; print
     2526 24E6 
0625 2528 0220  22 			AI		R0,4					; Advance VDP ptr
     252A 0004 
0626 252C 0380  18 			RTWP
0627               
0628               *--------------------------------------------
0629               * *** Print a string ***
0630               * Entered with BLWP, so return with RTWP
0631               * PC points to string pointer, so use R14
0632               * to access it and inc R14 past it.
0633               * R0 in this workspace is VDP RAM pointer.
0634               *--------------------------------------------
0635               GOPRINT
0636 252E 0300  24 				LIMI	0						; no more interrupts until RTWP
     2530 0000 
0637 2532 C07E  30 			  MOV		*R14+,R1		; Fetch string pointer to R1
0638 2534 06A0  32 			  BL		@SETUPVDPA
     2536 244E 
0639 2538 D0B1  28 !				MOVB	*R1+,R2
0640 253A 1311  14 				JEQ		!done				; zero ends -> !done
0641 253C 0282  22 				CI		R2,>0D00
     253E 0D00 
0642 2540 13FB  14 				JEQ		-!					; Skip 0xD's
0643 2542 0282  22 				CI		R2,>0A00    ; is it linefeed?
     2544 0A00 
0644 2546 1607  14 				JNE		!write			; no -> !write
0645               ; Here we are with a linefeed. Update to next line.
0646 2548 0220  22 				AI		R0,32
     254A 0020 
0647 254C 0240  22 				ANDI	R0,>FFE0
     254E FFE0 
0648 2550 06A0  32 				BL		@SETUPVDPA
     2552 244E 
0649 2554 10F1  14 				JMP		-!
0650               ; Write the character to the VDP
0651               !write
0652 2556 0580  14 				INC	  R0					; update our VDP address
0653 2558 D802  38 				MOVB	R2,@VDPWD
     255A 8C00 
0654 255C 10ED  14 				JMP		-!
0655               !done
0656 255E 0380  18   		  RTWP
0657               
0658               *--------------------------------------------
0659               * GOPRCHAR
0660               * Print a character from R1 high byte, PRINTWS
0661               * workspace.
0662               *--------------------------------------------
0663               GOPRCHAR
0664 2560 0300  24 			LIMI 	0
     2562 0000 
0665 2564 06A0  32 			BL		@SETUPVDPA		; Setup dest address
     2566 244E 
0666 2568 0580  14 			INC	  R0						; update our VDP address
0667 256A D801  38 			MOVB	R1,@VDPWD
     256C 8C00 
0668 256E 0380  18 			RTWP
0669               
0670               *--------------------------------------------
0671               * CLS
0672               * Clear the screen. Enter with BLWP
0673               *--------------------------------------------
0674               GOCLS
0675 2570 0300  24        LIMI 0
     2572 0000 
0676 2574 04C0  14        CLR  R0                * Start at top left corner of the screen
0677 2576 0201  20        LI   R1,>2000          * Write a space (>20 hex is 32 decimal)
     2578 2000 
0678 257A 0202  20        LI   R2,768            * Number of bytes to write
     257C 0300 
0679               
0680 257E D820  54        MOVB @PRINTWS+1,@VDPWA ;* Send low byte of VDP RAM write address
     2580 8321 
     2582 8C02 
0681 2584 0260  22        ORI  R0,>4000          * Set read/write bits 14 and 15 to write (01)
     2586 4000 
0682 2588 D800  38        MOVB R0,@VDPWA         * Send high byte of VDP RAM write address
     258A 8C02 
0683               
0684 258C D801  38 !      MOVB R1,@VDPWD         * Write byte to VDP RAM
     258E 8C00 
0685 2590 0602  14        DEC  R2                * Byte counter
0686 2592 16FC  14        JNE  -!                * Check if done
0687               
0688 2594 0200  20        LI   R0,1              * second column
     2596 0001 
0689 2598 06A0  32        BL   @SETUPVDPA
     259A 244E 
0690 259C 0380  18        RTWP
0691               
0692               *--------------------------------------------
0693               * DELAY that takes enough time for a human
0694               * to see something on the screen.
0695               * Enter with BLWP
0696               *--------------------------------------------
0697               GODELAY
0698               ; Stop here for a while
0699 259E 04C0  14       CLR   R0
0700 25A0 0201  20       LI    R1,10
     25A2 000A 
0701               !mydelay
0702 25A4 0600  14       DEC   R0
0703 25A6 16FE  14       JNE   -!mydelay
0704 25A8 0601  14       DEC   R1
0705 25AA 16FC  14       JNE   -!mydelay
0706               ; Next scroll the screen up
0707 25AC 06A0  32       BL    @SCROLLUP
     25AE 2464 
0708               ; Stop here for a while
0709 25B0 04C0  14       CLR   R0
0710 25B2 0201  20       LI    R1,10
     25B4 000A 
0711               !mydelay
0712 25B6 0600  14       DEC   R0
0713 25B8 16FE  14       JNE   -!mydelay
0714 25BA 0601  14       DEC   R1
0715 25BC 16FC  14       JNE   -!mydelay
0716 25BE 0380  18 			RTWP
0717               
0718                     EVEN
0719               CHARS
0720 25C0 0000           BYTE  0,0,0,0,0,0,0,0
     25C2 0000 
     25C4 0000 
     25C6 0000 
0721 25C8 0018           BYTE  >00,>18,>24,>42,>42,>7E,>42,>42
     25CA 2442 
     25CC 427E 
     25CE 4242 
0722 25D0 8080           BYTE  >80,>80,>80,>80,>80,>80,>80,>80
     25D2 8080 
     25D4 8080 
     25D6 8080 
0723 25D8 0103           BYTE  >01,>03,>01,>01,>01,>01,>01,>01
     25DA 0101 
     25DC 0101 
     25DE 0101 
0724                     EVEN
0725               ENDCHARS
0726               ; Initial VDP register values
0727               VDPSEQ
0728 25E0 00E0           BYTE  >00,>E0,>00,>0E    ; Interrupts enabled
     25E2 000E 
0729               ;      BYTE  >00,>C0,>00,>0E     ; Interrupts disabled
0730 25E4 0106           BYTE  >01,>06,>00,>F7
     25E6 00F7 
0731               TXTCRLF
0732 25E8 0D0A     		BYTE >0D,>0A
0733 25EA 0000     		BYTE >00
0734                   EVEN
0735               
0736               TESTK
0737 25EC 8090       DATA >8090
0738               
0739               
0740 25EE AA02     GROM0 BCOPY "GROMSMAL.BIN"
     25F0 0000 
     25F2 0000 
     25F4 0000 
     25F6 1310 
     25F8 1320 
     25FA 0000 
     25FC 0000 
     25FE 43DC 
     2600 443C 
     2602 49A9 
     2604 4396 
     2606 439E 
     2608 4446 
     260A 4449 
     260C 444C 
     260E 4052 
     2610 51FE 
     2612 4C82 
     2614 4D59 
     2616 4DB4 
     2618 4E64 
     261A 4EF9 
     261C 4F01 
     261E 4F5F 
     2620 4F80 
     2622 43CE 
     2624 43D6 
     2626 054D 
     2628 1252 
     262A 5E44 
     262C 1705 
     262E 2844 
     2630 0537 
     2632 B460 
     2634 0D00 
     2636 1100 
     2638 43C2 
     263A 04B4 
     263C 06B4 
     263E 0874 
     2640 8780 
     2642 CEBE 
     2644 8F11 
     2646 0070 
     2648 BE81 
     264A 009F 
     264C BE81 
     264E 00BF 
     2650 BE81 
     2652 00DF 
     2654 BE81 
     2656 00FF 
     2658 BF72 
     265A FF7E 
     265C 3900 
     265E 0800 
     2660 0451 
     2662 8600 
     2664 3500 
     2666 7101 
     2668 0035 
     266A 003E 
     266C 8082 
     266E 0035 
     2670 000B 
     2672 7400 
     2674 3500 
     2676 0880 
     2678 C200 
     267A BF03 
     267C 0308 
     267E F602 
     2680 03BF 
     2682 0310 
     2684 01F6 
     2686 0203 
     2688 BE03 
     268A 18F6 
     268C 0203 
     268E 8400 
     2690 BE03 
     2692 02F6 
     2694 0203 
     2696 BE03 
     2698 01F6 
     269A 0203 
     269C BF03 
     269E 1602 
     26A0 F602 
     26A2 0306 
     26A4 03CE 
     26A6 86A0 
     26A8 00BE 
     26AA 7010 
     26AC BEB0 
     26AE 70A0 
     26B0 8EA0 
     26B2 0040 
     26B4 DC39 
     26B6 0001 
     26B8 0104 
     26BA 4F86 
     26BC B070 
     26BE A070 
     26C0 70D6 
     26C2 7040 
     26C4 40BE 
     26C6 BE80 
     26C8 FD08 
     26CA 9370 
     26CC 3900 
     26CE 0101 
     26D0 0244 
     26D2 86A0 
     26D4 0035 
     26D6 0FFF 
     26D8 A001 
     26DA A000 
     26DC 3100 
     26DE 20A3 
     26E0 8004 
     26E2 5931 
     26E4 0200 
     26E6 A900 
     26E8 04B4 
     26EA 3100 
     26EC 50A8 
     26EE 0809 
     26F0 5007 
     26F2 20BE 
     26F4 7E05 
     26F6 BC74 
     26F8 7E03 
     26FA 927E 
     26FC 4108 
     26FE 877E 
     2700 BE75 
     2702 6008 
     2704 C1E0 
     2706 75FB 
     2708 0117 
     270A B09D 
     270C C1E0 
     270E 75FB 
     2710 011F 
     2712 FBA6 
     2714 7E12 
     2716 A275 
     2718 08D6 
     271A 75E0 
     271C 4115 
     271E D67E 
     2720 0341 
     2722 1287 
     2724 7E08 
     2726 A48E 
     2728 0201 
     272A 0203 
     272C 9C02 
     272E 0405 
     2730 069C 
     2732 0207 
     2734 0809 
     2736 A78F 
     2738 1B52 
     273A 4541 
     273C 4459 
     273E 2D50 
     2740 5245 
     2742 5353 
     2744 2041 
     2746 4E59 
     2748 204B 
     274A 4559 
     274C 2054 
     274E 4F20 
     2750 4245 
     2752 4749 
     2754 4EFB 
     2756 3100 
     2758 11A1 
     275A 2804 
     275C 9631 
     275E 0018 
     2760 A2C4 
     2762 048F 
     2764 3100 
     2766 0DA1 
     2768 6A04 
     276A A7BE 
     276C 4310 
     276E 0603 
     2770 7C87 
     2772 80D0 
     2774 8655 
     2776 BE6D 
     2778 040F 
     277A 1961 
     277C 8BBF 
     277E 7200 
     2780 80BF 
     2782 9072 
     2784 01A2 
     2786 0F1A 
     2788 BD90 
     278A 7390 
     278C 7296 
     278E 7200 
     2790 8F80 
     2792 D041 
     2794 8F39 
     2796 0001 
     2798 0104 
     279A 5086 
     279C 7402 
     279E FF03 
     27A0 41AF 
     27A2 0603 
     27A4 CE07 
     27A6 20BE 
     27A8 72FE 
     27AA BE6D 
     27AC 0686 
     27AE 6C86 
     27B0 80FB 
     27B2 3100 
     27B4 1EA4 
     27B6 0060 
     27B8 00BE 
     27BA 80FB 
     27BC 0431 
     27BE 001E 
     27C0 A420 
     27C2 6000 
     27C4 8658 
     27C6 8659 
     27C8 0501 
     27CA DF90 
     27CC 59CE 
     27CE 591D 
     27D0 61F0 
     27D2 D4E4 
     27D4 0058 
     27D6 E420 
     27D8 5841 
     27DA F205 
     27DC 01DD 
     27DE 4200 
     27E0 9472 
     27E2 8790 
     27E4 7294 
     27E6 72BF 
     27E8 9072 
     27EA 12A5 
     27EC 906C 
     27EE D68F 
     27F0 DD00 
     27F2 AA42 
     27F4 27BD 
     27F6 588F 
     27F8 DD06 
     27FA 8F58 
     27FC 6227 
     27FE 9472 
     2800 BF90 
     2802 72FF 
     2804 FF94 
     2806 72BD 
     2808 9072 
     280A 5890 
     280C 6CBD 
     280E 58CF 
     2810 7D00 
     2812 5842 
     2814 0C94 
     2816 7287 
     2818 9072 
     281A 0F1A 
     281C 6227 
     281E 9672 
     2820 D702 
     2822 12A5 
     2824 4243 
     2826 3100 
     2828 0159 
     282A 6000 
     282C D659 
     282E AA41 
     2830 B939 
     2832 0001 
     2834 0104 
     2836 5108 
     2838 A081 
     283A 0201 
     283C 0203 
     283E 9C02 
     2840 0405 
     2842 069C 
     2844 0207 
     2846 0809 
     2848 A09E 
     284A 0450 
     284C 5245 
     284E 5353 
     2850 FB31 
     2852 0011 
     2854 A028 
     2856 0496 
     2858 3100 
     285A 0DA0 
     285C 6804 
     285E A7BF 
     2860 5200 
     2862 E4BE 
     2864 5830 
     2866 8E6C 
     2868 4293 
     286A 08FF 
     286C 020F 
     286E 494E 
     2870 5345 
     2872 5254 
     2874 2043 
     2876 4152 
     2878 5452 
     287A 4944 
     287C 4745 
     287E FB42 
     2880 EF90 
     2882 58BC 
     2884 B052 
     2886 5895 
     2888 5231 
     288A 0003 
     288C B052 
     288E 094D 
     2890 A352 
     2892 0004 
     2894 BD6A 
     2896 9072 
     2898 9672 
     289A BD5C 
     289C 9072 
     289E 9672 
     28A0 A36A 
     28A2 0004 
     28A4 865E 
     28A6 8E5C 
     28A8 62D0 
     28AA 3500 
     28AC 015F 
     28AE CF7D 
     28B0 006A 
     28B2 916A 
     28B4 345E 
     28B6 B052 
     28B8 CF7D 
     28BA 006A 
     28BC 42E0 
     28BE 3300 
     28C0 015F 
     28C2 0000 
     28C4 6A91 
     28C6 6A32 
     28C8 5EB0 
     28CA 5200 
     28CC 006A 
     28CE A352 
     28D0 003A 
     28D2 D272 
     28D4 0062 
     28D6 93BE 
     28D8 4313 
     28DA 0603 
     28DC 7C39 
     28DE 0001 
     28E0 0104 
     28E2 5086 
     28E4 7402 
     28E6 FF03 
     28E8 42F7 
     28EA A675 
     28EC 31C8 
     28EE 756C 
     28F0 430A 
     28F2 0603 
     28F4 D605 
     28F6 02F7 
     28F8 0603 
     28FA CEA4 
     28FC 6C75 
     28FE 926C 
     2900 E26C 
     2902 02BC 
     2904 7890 
     2906 6C94 
     2908 6CBD 
     290A 5C90 
     290C 6C95 
     290E 5CBF 
     2910 729E 
     2912 808E 
     2914 7863 
     2916 32BD 
     2918 8080 
     291A CF7D 
     291C 005C 
     291E 433A 
     2920 3300 
     2922 0280 
     2924 8000 
     2926 005C 
     2928 0720 
     292A 8F80 
     292C CE43 
     292E 3CCF 
     2930 7010 
     2932 0043 
     2934 56BD 
     2936 0070 
     2938 A700 
     293A 0FFF 
     293C 3400 
     293E AF10 
     2940 00AF 
     2942 0FFF 
     2944 8600 
     2946 3500 
     2948 6F01 
     294A 0035 
     294C 003C 
     294E 8084 
     2950 0086 
     2952 7435 
     2954 001F 
     2956 A381 
     2958 A380 
     295A 8780 
     295C 828E 
     295E 7863 
     2960 7B96 
     2962 73BD 
     2964 0080 
     2966 800F 
     2968 F000 
     296A BE42 
     296C 6031 
     296E 0002 
     2970 2860 
     2972 00D6 
     2974 28AA 
     2976 4395 
     2978 D229 
     297A 0063 
     297C 9594 
     297E 73BD 
     2980 9073 
     2982 4200 
     2984 3102 
     2986 00B0 
     2988 4A04 
     298A B400 
     298C BF80 
     298E D006 
     2990 B4BE 
     2992 80D2 
     2994 4086 
     2996 B04A 
     2998 3300 
     299A 07E0 
     299C 014A 
     299E 0000 
     29A0 D0A3 
     29A2 4A00 
     29A4 08A3 
     29A6 80D0 
     29A8 0007 
     29AA 9280 
     29AC D243 
     29AE A700 
     29B0 BF80 
     29B2 D008 
     29B4 74BE 
     29B6 80D2 
     29B8 1F05 
     29BA 03A7 
     29BC BF58 
     29BE 0479 
     29C0 F658 
     29C2 0000 
     29C4 BF58 
     29C6 0484 
     29C8 43D2 
     29CA 886D 
     29CC 8654 
     29CE BC55 
     29D0 B056 
     29D2 8658 
     29D4 BD52 
     29D6 5691 
     29D8 52D4 
     29DA 5855 
     29DC 63FA 
     29DE D6B0 
     29E0 522E 
     29E2 63FA 
     29E4 9058 
     29E6 43E9 
     29E8 8E58 
     29EA 6438 
     29EC BC55 
     29EE 58D2 
     29F0 5508 
     29F2 6438 
     29F4 8654 
     29F6 8780 
     29F8 D091 
     29FA 5634 
     29FC 544A 
     29FE B056 
     2A00 A156 
     2A02 540F 
     2A04 1994 
     2A06 73BD 
     2A08 9073 
     2A0A 80FA 
     2A0C 0F1A 
     2A0E 442C 
     2A10 9473 
     2A12 BD90 
     2A14 7390 
     2A16 7296 
     2A18 7200 
     2A1A 8F80 
     2A1C D044 
     2A1E 1EBD 
     2A20 80FA 
     2A22 9073 
     2A24 9673 
     2A26 D400 
     2A28 0001 
     2A2A 9673 
     2A2C BD80 
     2A2E FA90 
     2A30 7396 
     2A32 7300 
     2A34 0528 
     2A36 4C05 
     2A38 284E 
     2A3A 0520 
     2A3C 1080 
     2A3E 6000 
     2A40 20F0 
     2A42 0EF9 
     2A44 86F8 
     2A46 F717 
     2A48 1717 
     2A4A 1717 
     2A4C 1717 
     2A4E 1717 
     2A50 1717 
     2A52 1706 
     2A54 0301 
     2A56 0B0C 
     2A58 0D0F 
     2A5A 0402 
     2A5C 0D08 
     2A5E 0E05 
     2A60 090A 
     2A62 0627 
     2A64 2722 
     2A66 2206 
     2A68 BFDF 
     2A6A FF80 
     2A6C 0592 
     2A6E 0A01 
     2A70 9F00 
     2A72 06BF 
     2A74 DFFF 
     2A76 8020 
     2A78 900A 
     2A7A 019F 
     2A7C 000A 
     2A7E 3139 
     2A80 3831 
     2A82 2020 
     2A84 5445 
     2A86 5841 
     2A88 5320 
     2A8A 494E 
     2A8C 5354 
     2A8E 5255 
     2A90 4D45 
     2A92 4E54 
     2A94 5348 
     2A96 4F4D 
     2A98 4520 
     2A9A 434F 
     2A9C 4D50 
     2A9E 5554 
     2AA0 4552 
     2AA2 0000 
     2AA4 0000 
     2AA6 0000 
     2AA8 0000 
     2AAA 2020 
     2AAC 2020 
     2AAE 2020 
     2AB0 0020 
     2AB2 4848 
     2AB4 4800 
     2AB6 0000 
     2AB8 0000 
     2ABA 0048 
     2ABC FC48 
     2ABE 48FC 
     2AC0 4800 
     2AC2 103C 
     2AC4 5038 
     2AC6 1478 
     2AC8 1000 
     2ACA C0C4 
     2ACC 0810 
     2ACE 2040 
     2AD0 8C0C 
     2AD2 6090 
     2AD4 9060 
     2AD6 6094 
     2AD8 8874 
     2ADA 0810 
     2ADC 2000 
     2ADE 0000 
     2AE0 0000 
     2AE2 0810 
     2AE4 2020 
     2AE6 2020 
     2AE8 1008 
     2AEA 4020 
     2AEC 1010 
     2AEE 1010 
     2AF0 2040 
     2AF2 0000 
     2AF4 4830 
     2AF6 CC30 
     2AF8 4800 
     2AFA 0000 
     2AFC 1010 
     2AFE 7C10 
     2B00 1000 
     2B02 0000 
     2B04 0000 
     2B06 0030 
     2B08 1020 
     2B0A 0000 
     2B0C 0000 
     2B0E 7C00 
     2B10 0000 
     2B12 0000 
     2B14 0000 
     2B16 0000 
     2B18 3030 
     2B1A 0004 
     2B1C 0810 
     2B1E 2040 
     2B20 8000 
     2B22 3844 
     2B24 4444 
     2B26 4444 
     2B28 4438 
     2B2A 1030 
     2B2C 5010 
     2B2E 1010 
     2B30 107C 
     2B32 7884 
     2B34 0408 
     2B36 1020 
     2B38 40FC 
     2B3A 7884 
     2B3C 0438 
     2B3E 0404 
     2B40 8478 
     2B42 0C14 
     2B44 2444 
     2B46 84FC 
     2B48 0404 
     2B4A F880 
     2B4C 80F8 
     2B4E 0404 
     2B50 8478 
     2B52 7880 
     2B54 80F8 
     2B56 8484 
     2B58 8478 
     2B5A FC04 
     2B5C 0408 
     2B5E 1020 
     2B60 4040 
     2B62 7884 
     2B64 8478 
     2B66 8484 
     2B68 8478 
     2B6A 7884 
     2B6C 8484 
     2B6E 7C04 
     2B70 0478 
     2B72 0030 
     2B74 3000 
     2B76 0030 
     2B78 3000 
     2B7A 0030 
     2B7C 3000 
     2B7E 0030 
     2B80 1020 
     2B82 0008 
     2B84 1020 
     2B86 4020 
     2B88 1008 
     2B8A 0000 
     2B8C 007C 
     2B8E 007C 
     2B90 0000 
     2B92 0040 
     2B94 2010 
     2B96 0810 
     2B98 2040 
     2B9A 3844 
     2B9C 0408 
     2B9E 1010 
     2BA0 0010 
     2BA2 0078 
     2BA4 849C 
     2BA6 A498 
     2BA8 807C 
     2BAA 7884 
     2BAC 8484 
     2BAE FC84 
     2BB0 8484 
     2BB2 F844 
     2BB4 4478 
     2BB6 4444 
     2BB8 44F8 
     2BBA 7884 
     2BBC 8080 
     2BBE 8080 
     2BC0 8478 
     2BC2 F844 
     2BC4 4444 
     2BC6 4444 
     2BC8 44F8 
     2BCA FC80 
     2BCC 80F0 
     2BCE 8080 
     2BD0 80FC 
     2BD2 FC80 
     2BD4 80F0 
     2BD6 8080 
     2BD8 8080 
     2BDA 7884 
     2BDC 8080 
     2BDE 9C84 
     2BE0 8478 
     2BE2 8484 
     2BE4 84FC 
     2BE6 8484 
     2BE8 8484 
     2BEA 7C10 
     2BEC 1010 
     2BEE 1010 
     2BF0 107C 
     2BF2 0404 
     2BF4 0404 
     2BF6 0484 
     2BF8 8478 
     2BFA 8890 
     2BFC A0C0 
     2BFE A090 
     2C00 8884 
     2C02 4040 
     2C04 4040 
     2C06 4040 
     2C08 407C 
     2C0A 84CC 
     2C0C B484 
     2C0E 8484 
     2C10 8484 
     2C12 84C4 
     2C14 A494 
     2C16 8C84 
     2C18 8484 
     2C1A FC84 
     2C1C 8484 
     2C1E 8484 
     2C20 84FC 
     2C22 F884 
     2C24 8484 
     2C26 F880 
     2C28 8080 
     2C2A 7884 
     2C2C 8484 
     2C2E 8494 
     2C30 8874 
     2C32 F884 
     2C34 8484 
     2C36 F890 
     2C38 8884 
     2C3A 7884 
     2C3C 8078 
     2C3E 0404 
     2C40 8478 
     2C42 7C10 
     2C44 1010 
     2C46 1010 
     2C48 1010 
     2C4A 8484 
     2C4C 8484 
     2C4E 8484 
     2C50 8478 
     2C52 4444 
     2C54 4444 
     2C56 2828 
     2C58 1010 
     2C5A 8484 
     2C5C 8484 
     2C5E 84B4 
     2C60 CC84 
     2C62 8484 
     2C64 4830 
     2C66 3048 
     2C68 8484 
     2C6A 4444 
     2C6C 4428 
     2C6E 1010 
     2C70 1010 
     2C72 FC04 
     2C74 0810 
     2C76 2040 
     2C78 80FC 
     2C7A 3820 
     2C7C 2020 
     2C7E 2020 
     2C80 2038 
     2C82 0080 
     2C84 4020 
     2C86 1008 
     2C88 0400 
     2C8A 7010 
     2C8C 1010 
     2C8E 1010 
     2C90 1070 
     2C92 1028 
     2C94 4482 
     2C96 0000 
     2C98 0000 
     2C9A 0000 
     2C9C 0000 
     2C9E 0000 
     2CA0 00FC 
     2CA2 0000 
     2CA4 0000 
     2CA6 0000 
     2CA8 0010 
     2CAA 1010 
     2CAC 1010 
     2CAE 0010 
     2CB0 2828 
     2CB2 2800 
     2CB4 0000 
     2CB6 0028 
     2CB8 287C 
     2CBA 287C 
     2CBC 2828 
     2CBE 3854 
     2CC0 5038 
     2CC2 1454 
     2CC4 3860 
     2CC6 6408 
     2CC8 1020 
     2CCA 4C0C 
     2CCC 2050 
     2CCE 5020 
     2CD0 5448 
     2CD2 3408 
     2CD4 0810 
     2CD6 0000 
     2CD8 0000 
     2CDA 0810 
     2CDC 2020 
     2CDE 2010 
     2CE0 0820 
     2CE2 1008 
     2CE4 0808 
     2CE6 1020 
     2CE8 0028 
     2CEA 107C 
     2CEC 1028 
     2CEE 0000 
     2CF0 1010 
     2CF2 7C10 
     2CF4 1000 
     2CF6 0000 
     2CF8 0000 
     2CFA 3010 
     2CFC 2000 
     2CFE 0000 
     2D00 7C00 
     2D02 0000 
     2D04 0000 
     2D06 0000 
     2D08 0030 
     2D0A 3000 
     2D0C 0408 
     2D0E 1020 
     2D10 4000 
     2D12 3844 
     2D14 4444 
     2D16 4444 
     2D18 3810 
     2D1A 3010 
     2D1C 1010 
     2D1E 1038 
     2D20 3844 
     2D22 0408 
     2D24 1020 
     2D26 7C38 
     2D28 4404 
     2D2A 1804 
     2D2C 4438 
     2D2E 0818 
     2D30 2848 
     2D32 7C08 
     2D34 087C 
     2D36 4078 
     2D38 0404 
     2D3A 4438 
     2D3C 1820 
     2D3E 4078 
     2D40 4444 
     2D42 387C 
     2D44 0408 
     2D46 1020 
     2D48 2020 
     2D4A 3844 
     2D4C 4438 
     2D4E 4444 
     2D50 3838 
     2D52 4444 
     2D54 3C04 
     2D56 0830 
     2D58 0030 
     2D5A 3000 
     2D5C 3030 
     2D5E 0000 
     2D60 3030 
     2D62 0030 
     2D64 1020 
     2D66 0810 
     2D68 2040 
     2D6A 2010 
     2D6C 0800 
     2D6E 007C 
     2D70 007C 
     2D72 0000 
     2D74 2010 
     2D76 0804 
     2D78 0810 
     2D7A 2038 
     2D7C 4404 
     2D7E 0810 
     2D80 0010 
     2D82 3844 
     2D84 5C54 
     2D86 5C40 
     2D88 3838 
     2D8A 4444 
     2D8C 7C44 
     2D8E 4444 
     2D90 7824 
     2D92 2438 
     2D94 2424 
     2D96 7838 
     2D98 4440 
     2D9A 4040 
     2D9C 4438 
     2D9E 7824 
     2DA0 2424 
     2DA2 2424 
     2DA4 787C 
     2DA6 4040 
     2DA8 7840 
     2DAA 407C 
     2DAC 7C40 
     2DAE 4078 
     2DB0 4040 
     2DB2 403C 
     2DB4 4040 
     2DB6 5C44 
     2DB8 4438 
     2DBA 4444 
     2DBC 447C 
     2DBE 4444 
     2DC0 4438 
     2DC2 1010 
     2DC4 1010 
     2DC6 1038 
     2DC8 0404 
     2DCA 0404 
     2DCC 0444 
     2DCE 3844 
     2DD0 4850 
     2DD2 6050 
     2DD4 4844 
     2DD6 4040 
     2DD8 4040 
     2DDA 4040 
     2DDC 7C44 
     2DDE 6C54 
     2DE0 5444 
     2DE2 4444 
     2DE4 4464 
     2DE6 6454 
     2DE8 4C4C 
     2DEA 447C 
     2DEC 4444 
     2DEE 4444 
     2DF0 447C 
     2DF2 7844 
     2DF4 4478 
     2DF6 4040 
     2DF8 4038 
     2DFA 4444 
     2DFC 4454 
     2DFE 4834 
     2E00 7844 
     2E02 4478 
     2E04 5048 
     2E06 4438 
     2E08 4440 
     2E0A 3804 
     2E0C 4438 
     2E0E 7C10 
     2E10 1010 
     2E12 1010 
     2E14 1044 
     2E16 4444 
     2E18 4444 
     2E1A 4438 
     2E1C 4444 
     2E1E 4428 
     2E20 2810 
     2E22 1044 
     2E24 4444 
     2E26 5454 
     2E28 5428 
     2E2A 4444 
     2E2C 2810 
     2E2E 2844 
     2E30 4444 
     2E32 4428 
     2E34 1010 
     2E36 1010 
     2E38 7C04 
     2E3A 0810 
     2E3C 2040 
     2E3E 7C38 
     2E40 2020 
     2E42 2020 
     2E44 2038 
     2E46 0040 
     2E48 2010 
     2E4A 0804 
     2E4C 0038 
     2E4E 0808 
     2E50 0808 
     2E52 0838 
     2E54 0010 
     2E56 2844 
     2E58 0000 
     2E5A 0000 
     2E5C 0000 
     2E5E 0000 
     2E60 007C 
     2E62 0020 
     2E64 1008 
     2E66 0000 
     2E68 0000 
     2E6A 0038 
     2E6C 447C 
     2E6E 4444 
     2E70 0000 
     2E72 7824 
     2E74 3824 
     2E76 7800 
     2E78 003C 
     2E7A 4040 
     2E7C 403C 
     2E7E 0000 
     2E80 7824 
     2E82 2424 
     2E84 7800 
0741                   EVEN
0742 2E86 6060     VDPDUMP BCOPY "vdp-raw.bin"
     2E88 6868 
     2E8A 7070 
     2E8C 7878 
     2E8E 8080 
     2E90 8888 
     2E92 9090 
     2E94 9898 
     2E96 A0A0 
     2E98 A8A8 
     2E9A B0B0 
     2E9C B8B8 
     2E9E C0C0 
     2EA0 C8C8 
     2EA2 D0D0 
     2EA4 D8D8 
     2EA6 6060 
     2EA8 6868 
     2EAA 7070 
     2EAC 7878 
     2EAE 8080 
     2EB0 8888 
     2EB2 9090 
     2EB4 9898 
     2EB6 A0A0 
     2EB8 A8A8 
     2EBA B0B0 
     2EBC B8B8 
     2EBE C0C0 
     2EC0 C8C8 
     2EC2 D0D0 
     2EC4 D8D8 
     2EC6 6060 
     2EC8 6868 
     2ECA 7070 
     2ECC 7878 
     2ECE 8080 
     2ED0 8888 
     2ED2 9090 
     2ED4 9898 
     2ED6 A0A0 
     2ED8 A8A8 
     2EDA B0B0 
     2EDC B8B8 
     2EDE C0C0 
     2EE0 C8C8 
     2EE2 D0D0 
     2EE4 D8D8 
     2EE6 2020 
     2EE8 2020 
     2EEA 2020 
     2EEC 2020 
     2EEE 2020 
     2EF0 2020 
     2EF2 2020 
     2EF4 2020 
     2EF6 2020 
     2EF8 2020 
     2EFA 2020 
     2EFC 2020 
     2EFE 2020 
     2F00 2020 
     2F02 2020 
     2F04 2020 
     2F06 2020 
     2F08 2020 
     2F0A 2020 
     2F0C 2020 
     2F0E 2020 
     2F10 2020 
     2F12 2020 
     2F14 2020 
     2F16 2020 
     2F18 2020 
     2F1A 2020 
     2F1C 2020 
     2F1E 2020 
     2F20 2020 
     2F22 2020 
     2F24 2020 
     2F26 2020 
     2F28 2020 
     2F2A 2020 
     2F2C 2020 
     2F2E 2020 
     2F30 2020 
     2F32 2020 
     2F34 2001 
     2F36 0203 
     2F38 2020 
     2F3A 2020 
     2F3C 2020 
     2F3E 2020 
     2F40 2020 
     2F42 2020 
     2F44 2020 
     2F46 2020 
     2F48 2020 
     2F4A 2020 
     2F4C 2020 
     2F4E 2020 
     2F50 2020 
     2F52 2020 
     2F54 2004 
     2F56 0506 
     2F58 2020 
     2F5A 2020 
     2F5C 2020 
     2F5E 2020 
     2F60 2020 
     2F62 2020 
     2F64 2020 
     2F66 2020 
     2F68 2020 
     2F6A 2020 
     2F6C 2020 
     2F6E 2020 
     2F70 2020 
     2F72 2020 
     2F74 2007 
     2F76 0809 
     2F78 2020 
     2F7A 2020 
     2F7C 2020 
     2F7E 2020 
     2F80 2020 
     2F82 2020 
     2F84 2020 
     2F86 2020 
     2F88 2020 
     2F8A 2020 
     2F8C 2020 
     2F8E 2020 
     2F90 2020 
     2F92 2020 
     2F94 2020 
     2F96 2020 
     2F98 2020 
     2F9A 2020 
     2F9C 2020 
     2F9E 2020 
     2FA0 2020 
     2FA2 2020 
     2FA4 2020 
     2FA6 2020 
     2FA8 2020 
     2FAA 2020 
     2FAC 2020 
     2FAE 5445 
     2FB0 5841 
     2FB2 5320 
     2FB4 494E 
     2FB6 5354 
     2FB8 5255 
     2FBA 4D45 
     2FBC 4E54 
     2FBE 5320 
     2FC0 2020 
     2FC2 2020 
     2FC4 2020 
     2FC6 2020 
     2FC8 2020 
     2FCA 2020 
     2FCC 2020 
     2FCE 2020 
     2FD0 2020 
     2FD2 2020 
     2FD4 2020 
     2FD6 2020 
     2FD8 2020 
     2FDA 2020 
     2FDC 2020 
     2FDE 2020 
     2FE0 2020 
     2FE2 2020 
     2FE4 2020 
     2FE6 2020 
     2FE8 2020 
     2FEA 2020 
     2FEC 2020 
     2FEE 2020 
     2FF0 484F 
     2FF2 4D45 
     2FF4 2043 
     2FF6 4F4D 
     2FF8 5055 
     2FFA 5445 
     2FFC 5220 
     2FFE 2020 
     3000 2020 
     3002 2020 
     3004 2020 
     3006 2020 
     3008 2020 
     300A 2020 
     300C 2020 
     300E 2020 
     3010 2020 
     3012 2020 
     3014 2020 
     3016 2020 
     3018 2020 
     301A 2020 
     301C 2020 
     301E 2020 
     3020 2020 
     3022 2020 
     3024 2020 
     3026 2020 
     3028 2020 
     302A 2020 
     302C 2020 
     302E 2020 
     3030 2020 
     3032 2020 
     3034 2020 
     3036 2020 
     3038 2020 
     303A 2020 
     303C 2020 
     303E 2020 
     3040 2020 
     3042 2020 
     3044 2020 
     3046 2020 
     3048 2020 
     304A 2020 
     304C 2020 
     304E 2020 
     3050 2020 
     3052 2020 
     3054 2020 
     3056 2020 
     3058 2020 
     305A 2020 
     305C 2020 
     305E 2020 
     3060 2020 
     3062 2020 
     3064 2020 
     3066 2020 
     3068 2020 
     306A 2020 
     306C 2020 
     306E 2020 
     3070 2020 
     3072 2020 
     3074 2020 
     3076 2020 
     3078 2020 
     307A 2020 
     307C 2020 
     307E 2020 
     3080 2020 
     3082 2020 
     3084 2020 
     3086 2020 
     3088 5245 
     308A 4144 
     308C 592D 
     308E 5052 
     3090 4553 
     3092 5320 
     3094 414E 
     3096 5920 
     3098 4B45 
     309A 5920 
     309C 544F 
     309E 2042 
     30A0 4547 
     30A2 494E 
     30A4 2020 
     30A6 2020 
     30A8 2020 
     30AA 2020 
     30AC 2020 
     30AE 2020 
     30B0 2020 
     30B2 2020 
     30B4 2020 
     30B6 2020 
     30B8 2020 
     30BA 2020 
     30BC 2020 
     30BE 2020 
     30C0 2020 
     30C2 2020 
     30C4 2020 
     30C6 6060 
     30C8 6868 
     30CA 7070 
     30CC 7878 
     30CE 8080 
     30D0 8888 
     30D2 9090 
     30D4 9898 
     30D6 A0A0 
     30D8 A8A8 
     30DA B0B0 
     30DC B8B8 
     30DE C0C0 
     30E0 C8C8 
     30E2 D0D0 
     30E4 D8D8 
     30E6 6060 
     30E8 6868 
     30EA 7070 
     30EC 7878 
     30EE 8080 
     30F0 8888 
     30F2 9090 
     30F4 9898 
     30F6 A0A0 
     30F8 A8A8 
     30FA B0B0 
     30FC B8B8 
     30FE C0C0 
     3100 C8C8 
     3102 D0D0 
     3104 D8D8 
     3106 6060 
     3108 6868 
     310A 7070 
     310C 7878 
     310E 8080 
     3110 8888 
     3112 9090 
     3114 9898 
     3116 A0A0 
     3118 A8A8 
     311A B0B0 
     311C B8B8 
     311E C0C0 
     3120 C8C8 
     3122 D0D0 
     3124 D8D8 
     3126 2020 
     3128 2020 
     312A 2020 
     312C 2020 
     312E 2020 
     3130 2020 
     3132 2020 
     3134 2020 
     3136 2020 
     3138 2020 
     313A 2020 
     313C 2020 
     313E 2020 
     3140 2020 
     3142 2020 
     3144 2020 
     3146 2020 
     3148 2020 
     314A 0A31 
     314C 3938 
     314E 3120 
     3150 2054 
     3152 4558 
     3154 4153 
     3156 2049 
     3158 4E53 
     315A 5452 
     315C 554D 
     315E 454E 
     3160 5453 
     3162 2020 
     3164 2020 
     3166 2020 
     3168 2020 
     316A 2020 
     316C 2020 
     316E 2020 
     3170 2020 
     3172 2020 
     3174 2020 
     3176 2020 
     3178 2020 
     317A 2020 
     317C 2020 
     317E 2020 
     3180 2020 
     3182 2020 
     3184 2020 
     3186 0000 
     3188 0000 
     318A 0000 
     318C 0000 
     318E 0000 
     3190 0000 
     3192 0000 
     3194 0000 
     3196 0000 
     3198 0000 
     319A 0000 
     319C 0000 
     319E 0000 
     31A0 0000 
     31A2 0000 
     31A4 0000 
     31A6 0000 
     31A8 0000 
     31AA 0000 
     31AC 0000 
     31AE 0000 
     31B0 0000 
     31B2 0000 
     31B4 0000 
     31B6 0000 
     31B8 0000 
     31BA 0000 
     31BC 0000 
     31BE 0000 
     31C0 0000 
     31C2 0000 
     31C4 0000 
     31C6 0000 
     31C8 0000 
     31CA 0000 
     31CC 0000 
     31CE 0000 
     31D0 0000 
     31D2 0000 
     31D4 0000 
     31D6 0000 
     31D8 0000 
     31DA 0000 
     31DC 0000 
     31DE 0000 
     31E0 0000 
     31E2 0000 
     31E4 0000 
     31E6 0000 
     31E8 0000 
     31EA 0000 
     31EC 0000 
     31EE 0000 
     31F0 0000 
     31F2 0000 
     31F4 0000 
     31F6 0000 
     31F8 0000 
     31FA 0000 
     31FC 0000 
     31FE 0000 
     3200 0000 
     3202 0000 
     3204 0000 
     3206 1717 
     3208 1717 
     320A 1717 
     320C 1717 
     320E 1717 
     3210 1717 
     3212 0603 
     3214 010B 
     3216 0C0D 
     3218 0F04 
     321A 020D 
     321C 080E 
     321E 0509 
     3220 0A06 
     3222 2727 
     3224 2222 
     3226 0000 
     3228 0000 
     322A 0000 
     322C 0000 
     322E 0000 
     3230 0000 
     3232 0000 
     3234 0000 
     3236 0000 
     3238 0000 
     323A 0000 
     323C 0000 
     323E 0000 
     3240 0000 
     3242 0000 
     3244 0000 
     3246 0000 
     3248 0000 
     324A 0000 
     324C 0000 
     324E 0000 
     3250 0000 
     3252 0000 
     3254 0000 
     3256 0000 
     3258 0000 
     325A 0000 
     325C 0000 
     325E 0000 
     3260 0000 
     3262 0000 
     3264 0000 
     3266 0000 
     3268 0000 
     326A 0000 
     326C 0000 
     326E 0000 
     3270 0000 
     3272 0000 
     3274 0000 
     3276 0000 
     3278 0000 
     327A 0000 
     327C 0000 
     327E 0000 
     3280 0000 
     3282 0000 
     3284 0000 
     3286 0000 
     3288 0000 
     328A 0000 
     328C 0000 
     328E 0000 
     3290 0000 
     3292 0000 
     3294 0000 
     3296 0000 
     3298 0000 
     329A 0000 
     329C 0000 
     329E 0000 
     32A0 0000 
     32A2 0000 
     32A4 0000 
     32A6 0000 
     32A8 0000 
     32AA 0000 
     32AC 0000 
     32AE 0000 
     32B0 0000 
     32B2 0000 
     32B4 0000 
     32B6 0000 
     32B8 0000 
     32BA 0000 
     32BC 0000 
     32BE 0000 
     32C0 0000 
     32C2 0000 
     32C4 0000 
     32C6 0000 
     32C8 0000 
     32CA 0000 
     32CC 0000 
     32CE 0000 
     32D0 0000 
     32D2 0000 
     32D4 0000 
     32D6 0000 
     32D8 0000 
     32DA 0000 
     32DC 0000 
     32DE 0000 
     32E0 0000 
     32E2 0000 
     32E4 0000 
     32E6 0000 
     32E8 0000 
     32EA 0000 
     32EC 0000 
     32EE 0000 
     32F0 0000 
     32F2 0000 
     32F4 0000 
     32F6 0000 
     32F8 0000 
     32FA 0000 
     32FC 0000 
     32FE 0000 
     3300 0000 
     3302 0000 
     3304 0000 
     3306 0000 
     3308 0000 
     330A 0000 
     330C 0000 
     330E 0000 
     3310 0000 
     3312 0000 
     3314 0000 
     3316 0000 
     3318 0000 
     331A 0000 
     331C 0000 
     331E 0000 
     3320 0000 
     3322 0000 
     3324 0000 
     3326 0000 
     3328 0000 
     332A 0000 
     332C 0000 
     332E 0000 
     3330 0000 
     3332 0000 
     3334 0000 
     3336 0000 
     3338 0000 
     333A 0000 
     333C 0000 
     333E 0000 
     3340 0000 
     3342 0000 
     3344 0000 
     3346 0000 
     3348 0000 
     334A 0000 
     334C 0000 
     334E 0000 
     3350 0000 
     3352 0000 
     3354 0000 
     3356 0000 
     3358 0000 
     335A 0000 
     335C 0000 
     335E 0000 
     3360 0000 
     3362 0000 
     3364 0000 
     3366 0000 
     3368 0000 
     336A 0000 
     336C 0000 
     336E 0000 
     3370 0000 
     3372 0000 
     3374 0000 
     3376 0000 
     3378 0000 
     337A 0000 
     337C 0000 
     337E 0000 
     3380 0000 
     3382 0000 
     3384 0000 
     3386 0000 
     3388 0000 
     338A 0000 
     338C 0000 
     338E 0000 
     3390 0000 
     3392 0000 
     3394 0000 
     3396 0000 
     3398 0000 
     339A 0000 
     339C 0000 
     339E 0000 
     33A0 0000 
     33A2 0000 
     33A4 0000 
     33A6 0000 
     33A8 0000 
     33AA 0000 
     33AC 0000 
     33AE 0000 
     33B0 0000 
     33B2 0000 
     33B4 0000 
     33B6 0000 
     33B8 0000 
     33BA 0000 
     33BC 0000 
     33BE 0000 
     33C0 0000 
     33C2 0000 
     33C4 0000 
     33C6 0000 
     33C8 0000 
     33CA 0000 
     33CC 0000 
     33CE 0000 
     33D0 0000 
     33D2 0000 
     33D4 0000 
     33D6 0000 
     33D8 0000 
     33DA 0000 
     33DC 0000 
     33DE 0000 
     33E0 0000 
     33E2 0000 
     33E4 0000 
     33E6 0000 
     33E8 0000 
     33EA 0000 
     33EC 0000 
     33EE 0000 
     33F0 0000 
     33F2 0000 
     33F4 0000 
     33F6 0000 
     33F8 0000 
     33FA 0000 
     33FC 0000 
     33FE 0000 
     3400 0000 
     3402 0000 
     3404 0000 
     3406 0000 
     3408 0000 
     340A 0000 
     340C 0000 
     340E 0000 
     3410 0000 
     3412 0000 
     3414 0000 
     3416 0000 
     3418 0000 
     341A 0000 
     341C 0000 
     341E 0000 
     3420 0000 
     3422 0000 
     3424 0000 
     3426 0000 
     3428 0000 
     342A 0000 
     342C 0000 
     342E 0000 
     3430 0000 
     3432 0000 
     3434 0000 
     3436 0000 
     3438 0000 
     343A 0000 
     343C 0000 
     343E 0000 
     3440 0000 
     3442 0000 
     3444 0000 
     3446 0000 
     3448 0000 
     344A 0000 
     344C 0000 
     344E 0000 
     3450 0000 
     3452 0000 
     3454 0000 
     3456 0000 
     3458 0000 
     345A 0000 
     345C 0000 
     345E 0000 
     3460 0000 
     3462 0000 
     3464 0000 
     3466 0000 
     3468 0000 
     346A 0000 
     346C 0000 
     346E 0000 
     3470 0000 
     3472 0000 
     3474 0000 
     3476 0000 
     3478 0000 
     347A 0000 
     347C 0000 
     347E 0000 
     3480 0000 
     3482 0000 
     3484 0000 
     3486 0000 
     3488 0000 
     348A 0000 
     348C 0000 
     348E 0000 
     3490 0000 
     3492 0000 
     3494 0000 
     3496 0000 
     3498 0000 
     349A 0000 
     349C 0000 
     349E 0000 
     34A0 0000 
     34A2 0000 
     34A4 0000 
     34A6 0000 
     34A8 0000 
     34AA 0000 
     34AC 0000 
     34AE 0000 
     34B0 0000 
     34B2 0000 
     34B4 0000 
     34B6 0000 
     34B8 0000 
     34BA 0000 
     34BC 0000 
     34BE 0000 
     34C0 0000 
     34C2 0000 
     34C4 0000 
     34C6 0000 
     34C8 0000 
     34CA 0000 
     34CC 0000 
     34CE 0000 
     34D0 0000 
     34D2 0000 
     34D4 0000 
     34D6 0000 
     34D8 0000 
     34DA 0000 
     34DC 0000 
     34DE 0000 
     34E0 0000 
     34E2 0000 
     34E4 0000 
     34E6 0000 
     34E8 0000 
     34EA 0000 
     34EC 0000 
     34EE 0000 
     34F0 0000 
     34F2 0000 
     34F4 0000 
     34F6 0000 
     34F8 0000 
     34FA 0000 
     34FC 0000 
     34FE 0000 
     3500 0000 
     3502 0000 
     3504 0000 
     3506 0000 
     3508 0000 
     350A 0000 
     350C 0000 
     350E 0000 
     3510 0000 
     3512 0000 
     3514 0000 
     3516 0000 
     3518 0000 
     351A 0000 
     351C 0000 
     351E 0000 
     3520 0000 
     3522 0000 
     3524 0000 
     3526 0000 
     3528 0000 
     352A 0000 
     352C 0000 
     352E 0000 
     3530 0000 
     3532 0000 
     3534 0000 
     3536 0000 
     3538 0000 
     353A 0000 
     353C 0000 
     353E 0000 
     3540 0000 
     3542 0000 
     3544 0000 
     3546 0000 
     3548 0000 
     354A 0000 
     354C 0000 
     354E 0000 
     3550 0000 
     3552 0000 
     3554 0000 
     3556 0000 
     3558 0000 
     355A 0000 
     355C 0000 
     355E 0000 
     3560 0000 
     3562 0000 
     3564 0000 
     3566 0000 
     3568 0000 
     356A 0000 
     356C 0000 
     356E 0000 
     3570 0000 
     3572 0000 
     3574 0000 
     3576 0000 
     3578 0000 
     357A 0000 
     357C 0000 
     357E 0000 
     3580 0000 
     3582 0000 
     3584 0000 
     3586 0000 
     3588 0000 
     358A 0000 
     358C 0000 
     358E 0000 
     3590 0000 
     3592 0000 
     3594 0000 
     3596 0000 
     3598 0000 
     359A 0000 
     359C 0000 
     359E 0000 
     35A0 0000 
     35A2 0000 
     35A4 0000 
     35A6 0000 
     35A8 0000 
     35AA 0000 
     35AC 0000 
     35AE 0000 
     35B0 0000 
     35B2 0000 
     35B4 0000 
     35B6 0000 
     35B8 0000 
     35BA 0000 
     35BC 0000 
     35BE 0000 
     35C0 0000 
     35C2 0000 
     35C4 0000 
     35C6 0000 
     35C8 0000 
     35CA 0000 
     35CC 0000 
     35CE 0000 
     35D0 0000 
     35D2 0000 
     35D4 0000 
     35D6 0000 
     35D8 0000 
     35DA 0000 
     35DC 0000 
     35DE 0000 
     35E0 0000 
     35E2 0000 
     35E4 0000 
     35E6 0000 
     35E8 0000 
     35EA 0000 
     35EC 0000 
     35EE 0000 
     35F0 0000 
     35F2 0000 
     35F4 0000 
     35F6 0000 
     35F8 0000 
     35FA 0000 
     35FC 0000 
     35FE 0000 
     3600 0000 
     3602 0000 
     3604 0000 
     3606 0000 
     3608 0000 
     360A 0000 
     360C 0000 
     360E 0000 
     3610 0000 
     3612 0000 
     3614 0000 
     3616 0000 
     3618 0000 
     361A 0000 
     361C 0000 
     361E 0000 
     3620 0000 
     3622 0000 
     3624 0000 
     3626 0000 
     3628 0000 
     362A 0000 
     362C 0000 
     362E 0000 
     3630 0000 
     3632 0000 
     3634 0000 
     3636 0000 
     3638 0000 
     363A 0000 
     363C 0000 
     363E 0000 
     3640 0000 
     3642 0000 
     3644 0000 
     3646 0000 
     3648 0000 
     364A 0000 
     364C 0000 
     364E 0000 
     3650 0000 
     3652 0000 
     3654 0000 
     3656 0000 
     3658 0000 
     365A 0000 
     365C 0000 
     365E 0000 
     3660 0000 
     3662 0000 
     3664 0000 
     3666 0000 
     3668 0000 
     366A 0000 
     366C 0000 
     366E 0000 
     3670 0000 
     3672 0000 
     3674 0000 
     3676 0000 
     3678 0000 
     367A 0000 
     367C 0000 
     367E 0000 
     3680 0000 
     3682 0000 
     3684 0000 
     3686 0000 
     3688 0000 
     368A 0000 
     368C 0000 
     368E 0103 
     3690 0303 
     3692 0303 
     3694 0303 
     3696 FC04 
     3698 0505 
     369A 0406 
     369C 020C 
     369E 0080 
     36A0 4040 
     36A2 8000 
     36A4 0C12 
     36A6 FF80 
     36A8 C040 
     36AA 6038 
     36AC 1C0E 
     36AE 1921 
     36B0 213D 
     36B2 0505 
     36B4 05C4 
     36B6 BA8A 
     36B8 8ABA 
     36BA A1A1 
     36BC A122 
     36BE 0301 
     36C0 0000 
     36C2 0000 
     36C4 0000 
     36C6 E231 
     36C8 1018 
     36CA 0C07 
     36CC 0300 
     36CE 4C90 
     36D0 2040 
     36D2 4020 
     36D4 E000 
     36D6 3C42 
     36D8 99A1 
     36DA A199 
     36DC 423C 
     36DE 0000 
     36E0 0000 
     36E2 0000 
     36E4 0000 
     36E6 0000 
     36E8 0000 
     36EA 0000 
     36EC 0000 
     36EE 0000 
     36F0 0000 
     36F2 0000 
     36F4 0000 
     36F6 0000 
     36F8 0000 
     36FA 0000 
     36FC 0000 
     36FE 0000 
     3700 0000 
     3702 0000 
     3704 0000 
     3706 0000 
     3708 0000 
     370A 0000 
     370C 0000 
     370E 0000 
     3710 0000 
     3712 0000 
     3714 0000 
     3716 0000 
     3718 0000 
     371A 0000 
     371C 0000 
     371E 0000 
     3720 0000 
     3722 0000 
     3724 0000 
     3726 0000 
     3728 0000 
     372A 0000 
     372C 0000 
     372E 0000 
     3730 0000 
     3732 0000 
     3734 0000 
     3736 0000 
     3738 0000 
     373A 0000 
     373C 0000 
     373E 0000 
     3740 0000 
     3742 0000 
     3744 0000 
     3746 0000 
     3748 0000 
     374A 0000 
     374C 0000 
     374E 0000 
     3750 0000 
     3752 0000 
     3754 0000 
     3756 0000 
     3758 0000 
     375A 0000 
     375C 0000 
     375E 0000 
     3760 0000 
     3762 0000 
     3764 0000 
     3766 0000 
     3768 0000 
     376A 0000 
     376C 0000 
     376E 0000 
     3770 0000 
     3772 0000 
     3774 0000 
     3776 0000 
     3778 0000 
     377A 0000 
     377C 0000 
     377E 0000 
     3780 0000 
     3782 0000 
     3784 0000 
     3786 0000 
     3788 0000 
     378A 0000 
     378C 0000 
     378E 2020 
     3790 2020 
     3792 2020 
     3794 0020 
     3796 4848 
     3798 4800 
     379A 0000 
     379C 0000 
     379E 0048 
     37A0 FC48 
     37A2 48FC 
     37A4 4800 
     37A6 103C 
     37A8 5038 
     37AA 1478 
     37AC 1000 
     37AE C0C4 
     37B0 0810 
     37B2 2040 
     37B4 8C0C 
     37B6 6090 
     37B8 9060 
     37BA 6094 
     37BC 8874 
     37BE 0810 
     37C0 2000 
     37C2 0000 
     37C4 0000 
     37C6 0810 
     37C8 2020 
     37CA 2020 
     37CC 1008 
     37CE 4020 
     37D0 1010 
     37D2 1010 
     37D4 2040 
     37D6 0000 
     37D8 4830 
     37DA CC30 
     37DC 4800 
     37DE 0000 
     37E0 1010 
     37E2 7C10 
     37E4 1000 
     37E6 0000 
     37E8 0000 
     37EA 0030 
     37EC 1020 
     37EE 0000 
     37F0 0000 
     37F2 7C00 
     37F4 0000 
     37F6 0000 
     37F8 0000 
     37FA 0000 
     37FC 3030 
     37FE 0004 
     3800 0810 
     3802 2040 
     3804 8000 
     3806 3844 
     3808 4444 
     380A 4444 
     380C 4438 
     380E 1030 
     3810 5010 
     3812 1010 
     3814 107C 
     3816 7884 
     3818 0408 
     381A 1020 
     381C 40FC 
     381E 7884 
     3820 0438 
     3822 0404 
     3824 8478 
     3826 0C14 
     3828 2444 
     382A 84FC 
     382C 0404 
     382E F880 
     3830 80F8 
     3832 0404 
     3834 8478 
     3836 7880 
     3838 80F8 
     383A 8484 
     383C 8478 
     383E FC04 
     3840 0408 
     3842 1020 
     3844 4040 
     3846 7884 
     3848 8478 
     384A 8484 
     384C 8478 
     384E 7884 
     3850 8484 
     3852 7C04 
     3854 0478 
     3856 0030 
     3858 3000 
     385A 0030 
     385C 3000 
     385E 0030 
     3860 3000 
     3862 0030 
     3864 1020 
     3866 0008 
     3868 1020 
     386A 4020 
     386C 1008 
     386E 0000 
     3870 007C 
     3872 007C 
     3874 0000 
     3876 0040 
     3878 2010 
     387A 0810 
     387C 2040 
     387E 3844 
     3880 0408 
     3882 1010 
     3884 0010 
     3886 0078 
     3888 849C 
     388A A498 
     388C 807C 
     388E 7884 
     3890 8484 
     3892 FC84 
     3894 8484 
     3896 F844 
     3898 4478 
     389A 4444 
     389C 44F8 
     389E 7884 
     38A0 8080 
     38A2 8080 
     38A4 8478 
     38A6 F844 
     38A8 4444 
     38AA 4444 
     38AC 44F8 
     38AE FC80 
     38B0 80F0 
     38B2 8080 
     38B4 80FC 
     38B6 FC80 
     38B8 80F0 
     38BA 8080 
     38BC 8080 
     38BE 7884 
     38C0 8080 
     38C2 9C84 
     38C4 8478 
     38C6 8484 
     38C8 84FC 
     38CA 8484 
     38CC 8484 
     38CE 7C10 
     38D0 1010 
     38D2 1010 
     38D4 107C 
     38D6 0404 
     38D8 0404 
     38DA 0484 
     38DC 8478 
     38DE 8890 
     38E0 A0C0 
     38E2 A090 
     38E4 8884 
     38E6 4040 
     38E8 4040 
     38EA 4040 
     38EC 407C 
     38EE 84CC 
     38F0 B484 
     38F2 8484 
     38F4 8484 
     38F6 84C4 
     38F8 A494 
     38FA 8C84 
     38FC 8484 
     38FE FC84 
     3900 8484 
     3902 8484 
     3904 84FC 
     3906 F884 
     3908 8484 
     390A F880 
     390C 8080 
     390E 7884 
     3910 8484 
     3912 8494 
     3914 8874 
     3916 F884 
     3918 8484 
     391A F890 
     391C 8884 
     391E 7884 
     3920 8078 
     3922 0404 
     3924 8478 
     3926 7C10 
     3928 1010 
     392A 1010 
     392C 1010 
     392E 8484 
     3930 8484 
     3932 8484 
     3934 8478 
     3936 4444 
     3938 4444 
     393A 2828 
     393C 1010 
     393E 8484 
     3940 8484 
     3942 84B4 
     3944 CC84 
     3946 8484 
     3948 4830 
     394A 3048 
     394C 8484 
     394E 4444 
     3950 4428 
     3952 1010 
     3954 1010 
     3956 FC04 
     3958 0810 
     395A 2040 
     395C 80FC 
     395E 3820 
     3960 2020 
     3962 2020 
     3964 2038 
     3966 0080 
     3968 4020 
     396A 1008 
     396C 0400 
     396E 7010 
     3970 1010 
     3972 1010 
     3974 1070 
     3976 1028 
     3978 4482 
     397A 0000 
     397C 0000 
     397E 0000 
     3980 0000 
     3982 0000 
     3984 00FC 
     3986 0000 
     3988 0000 
     398A 0000 
     398C 0000 
     398E 0000 
     3990 0000 
     3992 0000 
     3994 0000 
0743               DUMPEND
0744 3996 ....     TMS99105  TEXT  'TMS99105 AND FPGA AT WORK! '
0745                     BYTE 0
0746                     EVEN
0747 39B2 ....     SPACES  TEXT '  '
0748 39B4 0047             BYTE 0
0749 39B5 ....     GTT		TEXT 'GROM CHECKSUM TEST:'
0750 39C8 0A0D     			BYTE 10,13,0
     39CA 0043 
0751 39CB ....     CRU0STR TEXT 'CRU FROM 0: '
0752                     BYTE 0
0753                     EVEN
0754               GROMTESTS
0755 39D8 ....           TEXT 'GROM READ TEST:1234>'
0756 39EC 0000           BYTE  0
0757                     EVEN
0758               HELLO
0759 39EE ....         TEXT '      TMS99105'
0760               ;	  TEXT '      SOFTCPU RUNNING'
0761 39FC 0000     	  BYTE 0
0762               	  EVEN
0763 39FE ....     FLAGS_STRING TEXT ' STATUS REGISTER'
0764 3A0E 0000     	  BYTE 0
0765               	  EVEN
0766               
0767 3A10 ....     TEST_TMS99110 TEXT 'TESTING TMS99110 INSTRUCTION'
0768 3A2C 0000           BYTE 0
0769                     EVEN
0770 3A2E ....     GOTBACK TEXT 'RETURNED AFTER MACROSTORE TEST'
0771 3A4C 0000     			BYTE 0
0772               			EVEN
0773               
0774               SLAST  END  BOOT
